target datalayout = "e-m:e-p270:32:32-p271:32:32-p272:64:64-i64:64-i128:128-f80:128-n8:16:32:64-S128"
target triple = "x86_64-pc-linux-gnu"

%"class.Imath_3_2::half" = type { i16 }
%class.halfFunction = type { ptr }
%"class.Imf_3_4::RgbaLut" = type <{ %class.halfFunction, i32, [4 x i8] }>
%"struct.Imf_3_4::Rgba" = type { %"class.Imath_3_2::half", %"class.Imath_3_2::half", %"class.Imath_3_2::half", %"class.Imath_3_2::half" }

; Function Attrs: inlinehint mustprogress nounwind uwtable
define linkonce_odr hidden noundef zeroext i16 @_ZNK9Imath_3_24half4bitsEv(ptr noundef nonnull align 2 dereferenceable(2) %0) #6 comdat align 2 {
  %2 = alloca ptr, align 8
  store ptr %0, ptr %2, align 8, !tbaa !8
  %3 = load ptr, ptr %2, align 8
  %4 = getelementptr inbounds nuw %"class.Imath_3_2::half", ptr %3, i32 0, i32 0
  %5 = load i16, ptr %4, align 2, !tbaa !57
  ret i16 %5
}

; Function Attrs: inlinehint mustprogress nounwind uwtable
define linkonce_odr hidden i16 @_ZNK12halfFunctionIN9Imath_3_24halfEEclES1_(ptr noundef nonnull align 8 dereferenceable(8) %0, i16 %1) #6 comdat align 2 {
  %3 = alloca %"class.Imath_3_2::half", align 2
  %4 = alloca %"class.Imath_3_2::half", align 2
  %5 = alloca ptr, align 8
  %6 = getelementptr inbounds nuw %"class.Imath_3_2::half", ptr %4, i32 0, i32 0
  store i16 %1, ptr %6, align 2
  store ptr %0, ptr %5, align 8, !tbaa !17
  %7 = load ptr, ptr %5, align 8
  %8 = getelementptr inbounds nuw %class.halfFunction, ptr %7, i32 0, i32 0
  %9 = load ptr, ptr %8, align 8, !tbaa !19
  %10 = call noundef zeroext i16 @_ZNK9Imath_3_24half4bitsEv(ptr noundef nonnull align 2 dereferenceable(2) %4) #3
  %11 = zext i16 %10 to i64
  %12 = getelementptr inbounds nuw %"class.Imath_3_2::half", ptr %9, i64 %11
  call void @llvm.memcpy.p0.p0.i64(ptr align 2 %3, ptr align 2 %12, i64 2, i1 false), !tbaa.struct !12
  %13 = getelementptr inbounds nuw %"class.Imath_3_2::half", ptr %3, i32 0, i32 0
  %14 = load i16, ptr %13, align 2
  ret i16 %14
}

; Function Attrs: mustprogress uwtable
define void @_ZNK7Imf_3_47RgbaLut5applyEPNS_4RgbaEii(ptr noundef nonnull align 8 dereferenceable(12) %0, ptr noundef %1, i32 noundef %2, i32 noundef %3) #4 align 2 {
  %5 = alloca ptr, align 8
  %6 = alloca ptr, align 8
  %7 = alloca i32, align 4
  %8 = alloca i32, align 4
  %9 = alloca %"class.Imath_3_2::half", align 2
  %10 = alloca %"class.Imath_3_2::half", align 2
  %11 = alloca %"class.Imath_3_2::half", align 2
  %12 = alloca %"class.Imath_3_2::half", align 2
  %13 = alloca %"class.Imath_3_2::half", align 2
  %14 = alloca %"class.Imath_3_2::half", align 2
  %15 = alloca %"class.Imath_3_2::half", align 2
  %16 = alloca %"class.Imath_3_2::half", align 2
  store ptr %0, ptr %5, align 8, !tbaa !45
  store ptr %1, ptr %6, align 8, !tbaa !47
  store i32 %2, ptr %7, align 4, !tbaa !10
  store i32 %3, ptr %8, align 4, !tbaa !10
  %17 = load ptr, ptr %5, align 8
  br label %18

18:                                               ; preds = %81, %4
  %19 = load i32, ptr %7, align 4, !tbaa !10
  %20 = icmp ne i32 %19, 0
  br i1 %20, label %21, label %88

21:                                               ; preds = %18
  %22 = getelementptr inbounds nuw %"class.Imf_3_4::RgbaLut", ptr %17, i32 0, i32 1
  %23 = load i32, ptr %22, align 8, !tbaa !49
  %24 = and i32 %23, 1
  %25 = icmp ne i32 %24, 0
  br i1 %25, label %26, label %36

26:                                               ; preds = %21
  call void @llvm.lifetime.start.p0(i64 2, ptr %9) #3
  %27 = getelementptr inbounds nuw %"class.Imf_3_4::RgbaLut", ptr %17, i32 0, i32 0
  %28 = load ptr, ptr %6, align 8, !tbaa !47
  %29 = getelementptr inbounds nuw %"struct.Imf_3_4::Rgba", ptr %28, i32 0, i32 0
  call void @llvm.memcpy.p0.p0.i64(ptr align 2 %10, ptr align 2 %29, i64 2, i1 false), !tbaa.struct !12
  %30 = getelementptr inbounds nuw %"class.Imath_3_2::half", ptr %10, i32 0, i32 0
  %31 = load i16, ptr %30, align 2
  %32 = call i16 @_ZNK12halfFunctionIN9Imath_3_24halfEEclES1_(ptr noundef nonnull align 8 dereferenceable(8) %27, i16 %31)
  %33 = getelementptr inbounds nuw %"class.Imath_3_2::half", ptr %9, i32 0, i32 0
  store i16 %32, ptr %33, align 2
  %34 = load ptr, ptr %6, align 8, !tbaa !47
  %35 = getelementptr inbounds nuw %"struct.Imf_3_4::Rgba", ptr %34, i32 0, i32 0
  call void @llvm.memcpy.p0.p0.i64(ptr align 2 %35, ptr align 2 %9, i64 2, i1 false), !tbaa.struct !12
  call void @llvm.lifetime.end.p0(i64 2, ptr %9) #3
  br label %36

36:                                               ; preds = %26, %21
  %37 = getelementptr inbounds nuw %"class.Imf_3_4::RgbaLut", ptr %17, i32 0, i32 1
  %38 = load i32, ptr %37, align 8, !tbaa !49
  %39 = and i32 %38, 2
  %40 = icmp ne i32 %39, 0
  br i1 %40, label %41, label %51

41:                                               ; preds = %36
  call void @llvm.lifetime.start.p0(i64 2, ptr %11) #3
  %42 = getelementptr inbounds nuw %"class.Imf_3_4::RgbaLut", ptr %17, i32 0, i32 0
  %43 = load ptr, ptr %6, align 8, !tbaa !47
  %44 = getelementptr inbounds nuw %"struct.Imf_3_4::Rgba", ptr %43, i32 0, i32 1
  call void @llvm.memcpy.p0.p0.i64(ptr align 2 %12, ptr align 2 %44, i64 2, i1 false), !tbaa.struct !12
  %45 = getelementptr inbounds nuw %"class.Imath_3_2::half", ptr %12, i32 0, i32 0
  %46 = load i16, ptr %45, align 2
  %47 = call i16 @_ZNK12halfFunctionIN9Imath_3_24halfEEclES1_(ptr noundef nonnull align 8 dereferenceable(8) %42, i16 %46)
  %48 = getelementptr inbounds nuw %"class.Imath_3_2::half", ptr %11, i32 0, i32 0
  store i16 %47, ptr %48, align 2
  %49 = load ptr, ptr %6, align 8, !tbaa !47
  %50 = getelementptr inbounds nuw %"struct.Imf_3_4::Rgba", ptr %49, i32 0, i32 1
  call void @llvm.memcpy.p0.p0.i64(ptr align 2 %50, ptr align 2 %11, i64 2, i1 false), !tbaa.struct !12
  call void @llvm.lifetime.end.p0(i64 2, ptr %11) #3
  br label %51

51:                                               ; preds = %41, %36
  %52 = getelementptr inbounds nuw %"class.Imf_3_4::RgbaLut", ptr %17, i32 0, i32 1
  %53 = load i32, ptr %52, align 8, !tbaa !49
  %54 = and i32 %53, 4
  %55 = icmp ne i32 %54, 0
  br i1 %55, label %56, label %66

56:                                               ; preds = %51
  call void @llvm.lifetime.start.p0(i64 2, ptr %13) #3
  %57 = getelementptr inbounds nuw %"class.Imf_3_4::RgbaLut", ptr %17, i32 0, i32 0
  %58 = load ptr, ptr %6, align 8, !tbaa !47
  %59 = getelementptr inbounds nuw %"struct.Imf_3_4::Rgba", ptr %58, i32 0, i32 2
  call void @llvm.memcpy.p0.p0.i64(ptr align 2 %14, ptr align 2 %59, i64 2, i1 false), !tbaa.struct !12
  %60 = getelementptr inbounds nuw %"class.Imath_3_2::half", ptr %14, i32 0, i32 0
  %61 = load i16, ptr %60, align 2
  %62 = call i16 @_ZNK12halfFunctionIN9Imath_3_24halfEEclES1_(ptr noundef nonnull align 8 dereferenceable(8) %57, i16 %61)
  %63 = getelementptr inbounds nuw %"class.Imath_3_2::half", ptr %13, i32 0, i32 0
  store i16 %62, ptr %63, align 2
  %64 = load ptr, ptr %6, align 8, !tbaa !47
  %65 = getelementptr inbounds nuw %"struct.Imf_3_4::Rgba", ptr %64, i32 0, i32 2
  call void @llvm.memcpy.p0.p0.i64(ptr align 2 %65, ptr align 2 %13, i64 2, i1 false), !tbaa.struct !12
  call void @llvm.lifetime.end.p0(i64 2, ptr %13) #3
  br label %66

66:                                               ; preds = %56, %51
  %67 = getelementptr inbounds nuw %"class.Imf_3_4::RgbaLut", ptr %17, i32 0, i32 1
  %68 = load i32, ptr %67, align 8, !tbaa !49
  %69 = and i32 %68, 8
  %70 = icmp ne i32 %69, 0
  br i1 %70, label %71, label %81

71:                                               ; preds = %66
  call void @llvm.lifetime.start.p0(i64 2, ptr %15) #3
  %72 = getelementptr inbounds nuw %"class.Imf_3_4::RgbaLut", ptr %17, i32 0, i32 0
  %73 = load ptr, ptr %6, align 8, !tbaa !47
  %74 = getelementptr inbounds nuw %"struct.Imf_3_4::Rgba", ptr %73, i32 0, i32 3
  call void @llvm.memcpy.p0.p0.i64(ptr align 2 %16, ptr align 2 %74, i64 2, i1 false), !tbaa.struct !12
  %75 = getelementptr inbounds nuw %"class.Imath_3_2::half", ptr %16, i32 0, i32 0
  %76 = load i16, ptr %75, align 2
  %77 = call i16 @_ZNK12halfFunctionIN9Imath_3_24halfEEclES1_(ptr noundef nonnull align 8 dereferenceable(8) %72, i16 %76)
  %78 = getelementptr inbounds nuw %"class.Imath_3_2::half", ptr %15, i32 0, i32 0
  store i16 %77, ptr %78, align 2
  %79 = load ptr, ptr %6, align 8, !tbaa !47
  %80 = getelementptr inbounds nuw %"struct.Imf_3_4::Rgba", ptr %79, i32 0, i32 3
  call void @llvm.memcpy.p0.p0.i64(ptr align 2 %80, ptr align 2 %15, i64 2, i1 false), !tbaa.struct !12
  call void @llvm.lifetime.end.p0(i64 2, ptr %15) #3
  br label %81

81:                                               ; preds = %71, %66
  %82 = load i32, ptr %8, align 4, !tbaa !10
  %83 = load ptr, ptr %6, align 8, !tbaa !47
  %84 = sext i32 %82 to i64
  %85 = getelementptr inbounds %"struct.Imf_3_4::Rgba", ptr %83, i64 %84
  store ptr %85, ptr %6, align 8, !tbaa !47
  %86 = load i32, ptr %7, align 4, !tbaa !10
  %87 = sub nsw i32 %86, 1
  store i32 %87, ptr %7, align 4, !tbaa !10
  br label %18, !llvm.loop !52

88:                                               ; preds = %18
  ret void
}