; Function Attrs: mustprogress nofree norecurse nosync nounwind memory(read, argmem: readwrite, inaccessiblemem: none) uwtable
define void @_ZNK7Imf_3_47RgbaLut5applyEPNS_4RgbaEii(ptr noundef nonnull readonly align 8 captures(none) dereferenceable(12) %0, ptr noundef captures(none) %1, i32 noundef %2, i32 noundef %3) local_unnamed_addr #3 align 2 {
  %.not27 = icmp eq i32 %2, 0
  br i1 %.not27, label %._crit_edge, label %.lr.ph

.lr.ph:                                           ; preds = %4
  %5 = getelementptr inbounds nuw i8, ptr %0, i64 8
  %6 = load i32, ptr %5, align 8, !tbaa !33
  %7 = and i32 %6, 1
  %.not20 = icmp eq i32 %7, 0
  %8 = load ptr, ptr %0, align 8
  %9 = and i32 %6, 2
  %.not21 = icmp eq i32 %9, 0
  %10 = and i32 %6, 4
  %.not22 = icmp eq i32 %10, 0
  %11 = and i32 %6, 8
  %.not23 = icmp eq i32 %11, 0
  %12 = sext i32 %3 to i64
  br i1 %.not20, label %.lr.ph.split.us, label %.lr.ph.split

.lr.ph.split.us:                                  ; preds = %.lr.ph, %27
  %.029.us = phi ptr [ %28, %27 ], [ %1, %.lr.ph ]
  %.01928.us = phi i32 [ %29, %27 ], [ %2, %.lr.ph ]
  br i1 %.not21, label %17, label %13

13:                                               ; preds = %.lr.ph.split.us
  %14 = getelementptr inbounds nuw i8, ptr %.029.us, i64 2
  %.sroa.04.0.copyload.us = load i16, ptr %14, align 2, !tbaa !9
  %15 = zext i16 %.sroa.04.0.copyload.us to i64
  %16 = getelementptr inbounds nuw %"class.Imath_3_2::half", ptr %8, i64 %15
  %.sroa.0.0.copyload.i24.us = load i16, ptr %16, align 2, !tbaa !9
  store i16 %.sroa.0.0.copyload.i24.us, ptr %14, align 2, !tbaa !9
  br label %17

17:                                               ; preds = %13, %.lr.ph.split.us
  br i1 %.not22, label %22, label %18

18:                                               ; preds = %17
  %19 = getelementptr inbounds nuw i8, ptr %.029.us, i64 4
  %.sroa.02.0.copyload.us = load i16, ptr %19, align 2, !tbaa !9
  %20 = zext i16 %.sroa.02.0.copyload.us to i64
  %21 = getelementptr inbounds nuw %"class.Imath_3_2::half", ptr %8, i64 %20
  %.sroa.0.0.copyload.i25.us = load i16, ptr %21, align 2, !tbaa !9
  store i16 %.sroa.0.0.copyload.i25.us, ptr %19, align 2, !tbaa !9
  br label %22

22:                                               ; preds = %18, %17
  br i1 %.not23, label %27, label %23

23:                                               ; preds = %22
  %24 = getelementptr inbounds nuw i8, ptr %.029.us, i64 6
  %.sroa.0.0.copyload.us = load i16, ptr %24, align 2, !tbaa !9
  %25 = zext i16 %.sroa.0.0.copyload.us to i64
  %26 = getelementptr inbounds nuw %"class.Imath_3_2::half", ptr %8, i64 %25
  %.sroa.0.0.copyload.i26.us = load i16, ptr %26, align 2, !tbaa !9
  store i16 %.sroa.0.0.copyload.i26.us, ptr %24, align 2, !tbaa !9
  br label %27

27:                                               ; preds = %23, %22
  %28 = getelementptr inbounds %"struct.Imf_3_4::Rgba", ptr %.029.us, i64 %12
  %29 = add nsw i32 %.01928.us, -1
  %.not.us = icmp eq i32 %29, 0
  br i1 %.not.us, label %._crit_edge, label %.lr.ph.split.us, !llvm.loop !36

.lr.ph.split:                                     ; preds = %.lr.ph
  br i1 %.not21, label %.lr.ph.split.split.us, label %.lr.ph.split.split

.lr.ph.split.split.us:                            ; preds = %.lr.ph.split
  br i1 %.not22, label %.lr.ph.split.split.us.split.us, label %.lr.ph.split.split.us.split

.lr.ph.split.split.us.split.us:                   ; preds = %.lr.ph.split.split.us
  br i1 %.not23, label %.lr.ph.split.split.us.split.us.split.us, label %.lr.ph.split.split.us.split.us.split

.lr.ph.split.split.us.split.us.split.us:          ; preds = %.lr.ph.split.split.us.split.us, %.lr.ph.split.split.us.split.us.split.us
  %.029.us30.us.us = phi ptr [ %32, %.lr.ph.split.split.us.split.us.split.us ], [ %1, %.lr.ph.split.split.us.split.us ]
  %.01928.us31.us.us = phi i32 [ %33, %.lr.ph.split.split.us.split.us.split.us ], [ %2, %.lr.ph.split.split.us.split.us ]
  %.sroa.06.0.copyload.us.us.us = load i16, ptr %.029.us30.us.us, align 2, !tbaa !9
  %30 = zext i16 %.sroa.06.0.copyload.us.us.us to i64
  %31 = getelementptr inbounds nuw %"class.Imath_3_2::half", ptr %8, i64 %30
  %.sroa.0.0.copyload.i.us.us.us = load i16, ptr %31, align 2, !tbaa !9
  store i16 %.sroa.0.0.copyload.i.us.us.us, ptr %.029.us30.us.us, align 2, !tbaa !9
  %32 = getelementptr inbounds %"struct.Imf_3_4::Rgba", ptr %.029.us30.us.us, i64 %12
  %33 = add nsw i32 %.01928.us31.us.us, -1
  %.not.us36.us.us = icmp eq i32 %33, 0
  br i1 %.not.us36.us.us, label %._crit_edge, label %.lr.ph.split.split.us.split.us.split.us, !llvm.loop !36

.lr.ph.split.split.us.split.us.split:             ; preds = %.lr.ph.split.split.us.split.us, %.lr.ph.split.split.us.split.us.split
  %.029.us30.us = phi ptr [ %39, %.lr.ph.split.split.us.split.us.split ], [ %1, %.lr.ph.split.split.us.split.us ]
  %.01928.us31.us = phi i32 [ %40, %.lr.ph.split.split.us.split.us.split ], [ %2, %.lr.ph.split.split.us.split.us ]
  %.sroa.06.0.copyload.us.us = load i16, ptr %.029.us30.us, align 2, !tbaa !9
  %34 = zext i16 %.sroa.06.0.copyload.us.us to i64
  %35 = getelementptr inbounds nuw %"class.Imath_3_2::half", ptr %8, i64 %34
  %.sroa.0.0.copyload.i.us.us = load i16, ptr %35, align 2, !tbaa !9
  store i16 %.sroa.0.0.copyload.i.us.us, ptr %.029.us30.us, align 2, !tbaa !9
  %36 = getelementptr inbounds nuw i8, ptr %.029.us30.us, i64 6
  %.sroa.0.0.copyload.us34.us = load i16, ptr %36, align 2, !tbaa !9
  %37 = zext i16 %.sroa.0.0.copyload.us34.us to i64
  %38 = getelementptr inbounds nuw %"class.Imath_3_2::half", ptr %8, i64 %37
  %.sroa.0.0.copyload.i26.us35.us = load i16, ptr %38, align 2, !tbaa !9
  store i16 %.sroa.0.0.copyload.i26.us35.us, ptr %36, align 2, !tbaa !9
  %39 = getelementptr inbounds %"struct.Imf_3_4::Rgba", ptr %.029.us30.us, i64 %12
  %40 = add nsw i32 %.01928.us31.us, -1
  %.not.us36.us = icmp eq i32 %40, 0
  br i1 %.not.us36.us, label %._crit_edge, label %.lr.ph.split.split.us.split.us.split, !llvm.loop !36

.lr.ph.split.split.us.split:                      ; preds = %.lr.ph.split.split.us
  br i1 %.not23, label %.lr.ph.split.split.us.split.split.us, label %.lr.ph.split.split.us.split.split

.lr.ph.split.split.us.split.split.us:             ; preds = %.lr.ph.split.split.us.split, %.lr.ph.split.split.us.split.split.us
  %.029.us30.us55 = phi ptr [ %46, %.lr.ph.split.split.us.split.split.us ], [ %1, %.lr.ph.split.split.us.split ]
  %.01928.us31.us56 = phi i32 [ %47, %.lr.ph.split.split.us.split.split.us ], [ %2, %.lr.ph.split.split.us.split ]
  %.sroa.06.0.copyload.us.us57 = load i16, ptr %.029.us30.us55, align 2, !tbaa !9
  %41 = zext i16 %.sroa.06.0.copyload.us.us57 to i64
  %42 = getelementptr inbounds nuw %"class.Imath_3_2::half", ptr %8, i64 %41
  %.sroa.0.0.copyload.i.us.us58 = load i16, ptr %42, align 2, !tbaa !9
  store i16 %.sroa.0.0.copyload.i.us.us58, ptr %.029.us30.us55, align 2, !tbaa !9
  %43 = getelementptr inbounds nuw i8, ptr %.029.us30.us55, i64 4
  %.sroa.02.0.copyload.us32.us = load i16, ptr %43, align 2, !tbaa !9
  %44 = zext i16 %.sroa.02.0.copyload.us32.us to i64
  %45 = getelementptr inbounds nuw %"class.Imath_3_2::half", ptr %8, i64 %44
  %.sroa.0.0.copyload.i25.us33.us = load i16, ptr %45, align 2, !tbaa !9
  store i16 %.sroa.0.0.copyload.i25.us33.us, ptr %43, align 2, !tbaa !9
  %46 = getelementptr inbounds %"struct.Imf_3_4::Rgba", ptr %.029.us30.us55, i64 %12
  %47 = add nsw i32 %.01928.us31.us56, -1
  %.not.us36.us59 = icmp eq i32 %47, 0
  br i1 %.not.us36.us59, label %._crit_edge, label %.lr.ph.split.split.us.split.split.us, !llvm.loop !36

.lr.ph.split.split.us.split.split:                ; preds = %.lr.ph.split.split.us.split, %.lr.ph.split.split.us.split.split
  %.029.us30 = phi ptr [ %56, %.lr.ph.split.split.us.split.split ], [ %1, %.lr.ph.split.split.us.split ]
  %.01928.us31 = phi i32 [ %57, %.lr.ph.split.split.us.split.split ], [ %2, %.lr.ph.split.split.us.split ]
  %.sroa.06.0.copyload.us = load i16, ptr %.029.us30, align 2, !tbaa !9
  %48 = zext i16 %.sroa.06.0.copyload.us to i64
  %49 = getelementptr inbounds nuw %"class.Imath_3_2::half", ptr %8, i64 %48
  %.sroa.0.0.copyload.i.us = load i16, ptr %49, align 2, !tbaa !9
  store i16 %.sroa.0.0.copyload.i.us, ptr %.029.us30, align 2, !tbaa !9
  %50 = getelementptr inbounds nuw i8, ptr %.029.us30, i64 4
  %.sroa.02.0.copyload.us32 = load i16, ptr %50, align 2, !tbaa !9
  %51 = zext i16 %.sroa.02.0.copyload.us32 to i64
  %52 = getelementptr inbounds nuw %"class.Imath_3_2::half", ptr %8, i64 %51
  %.sroa.0.0.copyload.i25.us33 = load i16, ptr %52, align 2, !tbaa !9
  store i16 %.sroa.0.0.copyload.i25.us33, ptr %50, align 2, !tbaa !9
  %53 = getelementptr inbounds nuw i8, ptr %.029.us30, i64 6
  %.sroa.0.0.copyload.us34 = load i16, ptr %53, align 2, !tbaa !9
  %54 = zext i16 %.sroa.0.0.copyload.us34 to i64
  %55 = getelementptr inbounds nuw %"class.Imath_3_2::half", ptr %8, i64 %54
  %.sroa.0.0.copyload.i26.us35 = load i16, ptr %55, align 2, !tbaa !9
  store i16 %.sroa.0.0.copyload.i26.us35, ptr %53, align 2, !tbaa !9
  %56 = getelementptr inbounds %"struct.Imf_3_4::Rgba", ptr %.029.us30, i64 %12
  %57 = add nsw i32 %.01928.us31, -1
  %.not.us36 = icmp eq i32 %57, 0
  br i1 %.not.us36, label %._crit_edge, label %.lr.ph.split.split.us.split.split, !llvm.loop !36

.lr.ph.split.split:                               ; preds = %.lr.ph.split
  br i1 %.not22, label %.lr.ph.split.split.split.us, label %.lr.ph.split.split.split

.lr.ph.split.split.split.us:                      ; preds = %.lr.ph.split.split
  br i1 %.not23, label %.lr.ph.split.split.split.us.split.us, label %.lr.ph.split.split.split.us.split

.lr.ph.split.split.split.us.split.us:             ; preds = %.lr.ph.split.split.split.us, %.lr.ph.split.split.split.us.split.us
  %.029.us37.us = phi ptr [ %63, %.lr.ph.split.split.split.us.split.us ], [ %1, %.lr.ph.split.split.split.us ]
  %.01928.us38.us = phi i32 [ %64, %.lr.ph.split.split.split.us.split.us ], [ %2, %.lr.ph.split.split.split.us ]
  %.sroa.06.0.copyload.us39.us = load i16, ptr %.029.us37.us, align 2, !tbaa !9
  %58 = zext i16 %.sroa.06.0.copyload.us39.us to i64
  %59 = getelementptr inbounds nuw %"class.Imath_3_2::half", ptr %8, i64 %58
  %.sroa.0.0.copyload.i.us40.us = load i16, ptr %59, align 2, !tbaa !9
  store i16 %.sroa.0.0.copyload.i.us40.us, ptr %.029.us37.us, align 2, !tbaa !9
  %60 = getelementptr inbounds nuw i8, ptr %.029.us37.us, i64 2
  %.sroa.04.0.copyload.us41.us = load i16, ptr %60, align 2, !tbaa !9
  %61 = zext i16 %.sroa.04.0.copyload.us41.us to i64
  %62 = getelementptr inbounds nuw %"class.Imath_3_2::half", ptr %8, i64 %61
  %.sroa.0.0.copyload.i24.us42.us = load i16, ptr %62, align 2, !tbaa !9
  store i16 %.sroa.0.0.copyload.i24.us42.us, ptr %60, align 2, !tbaa !9
  %63 = getelementptr inbounds %"struct.Imf_3_4::Rgba", ptr %.029.us37.us, i64 %12
  %64 = add nsw i32 %.01928.us38.us, -1
  %.not.us45.us = icmp eq i32 %64, 0
  br i1 %.not.us45.us, label %._crit_edge, label %.lr.ph.split.split.split.us.split.us, !llvm.loop !36

.lr.ph.split.split.split.us.split:                ; preds = %.lr.ph.split.split.split.us, %.lr.ph.split.split.split.us.split
  %.029.us37 = phi ptr [ %73, %.lr.ph.split.split.split.us.split ], [ %1, %.lr.ph.split.split.split.us ]
  %.01928.us38 = phi i32 [ %74, %.lr.ph.split.split.split.us.split ], [ %2, %.lr.ph.split.split.split.us ]
  %.sroa.06.0.copyload.us39 = load i16, ptr %.029.us37, align 2, !tbaa !9
  %65 = zext i16 %.sroa.06.0.copyload.us39 to i64
  %66 = getelementptr inbounds nuw %"class.Imath_3_2::half", ptr %8, i64 %65
  %.sroa.0.0.copyload.i.us40 = load i16, ptr %66, align 2, !tbaa !9
  store i16 %.sroa.0.0.copyload.i.us40, ptr %.029.us37, align 2, !tbaa !9
  %67 = getelementptr inbounds nuw i8, ptr %.029.us37, i64 2
  %.sroa.04.0.copyload.us41 = load i16, ptr %67, align 2, !tbaa !9
  %68 = zext i16 %.sroa.04.0.copyload.us41 to i64
  %69 = getelementptr inbounds nuw %"class.Imath_3_2::half", ptr %8, i64 %68
  %.sroa.0.0.copyload.i24.us42 = load i16, ptr %69, align 2, !tbaa !9
  store i16 %.sroa.0.0.copyload.i24.us42, ptr %67, align 2, !tbaa !9
  %70 = getelementptr inbounds nuw i8, ptr %.029.us37, i64 6
  %.sroa.0.0.copyload.us43 = load i16, ptr %70, align 2, !tbaa !9
  %71 = zext i16 %.sroa.0.0.copyload.us43 to i64
  %72 = getelementptr inbounds nuw %"class.Imath_3_2::half", ptr %8, i64 %71
  %.sroa.0.0.copyload.i26.us44 = load i16, ptr %72, align 2, !tbaa !9
  store i16 %.sroa.0.0.copyload.i26.us44, ptr %70, align 2, !tbaa !9
  %73 = getelementptr inbounds %"struct.Imf_3_4::Rgba", ptr %.029.us37, i64 %12
  %74 = add nsw i32 %.01928.us38, -1
  %.not.us45 = icmp eq i32 %74, 0
  br i1 %.not.us45, label %._crit_edge, label %.lr.ph.split.split.split.us.split, !llvm.loop !36

.lr.ph.split.split.split:                         ; preds = %.lr.ph.split.split
  br i1 %.not23, label %.lr.ph.split.split.split.split.us, label %.lr.ph.split.split.split.split

.lr.ph.split.split.split.split.us:                ; preds = %.lr.ph.split.split.split, %.lr.ph.split.split.split.split.us
  %.029.us46 = phi ptr [ %83, %.lr.ph.split.split.split.split.us ], [ %1, %.lr.ph.split.split.split ]
  %.01928.us47 = phi i32 [ %84, %.lr.ph.split.split.split.split.us ], [ %2, %.lr.ph.split.split.split ]
  %.sroa.06.0.copyload.us48 = load i16, ptr %.029.us46, align 2, !tbaa !9
  %75 = zext i16 %.sroa.06.0.copyload.us48 to i64
  %76 = getelementptr inbounds nuw %"class.Imath_3_2::half", ptr %8, i64 %75
  %.sroa.0.0.copyload.i.us49 = load i16, ptr %76, align 2, !tbaa !9
  store i16 %.sroa.0.0.copyload.i.us49, ptr %.029.us46, align 2, !tbaa !9
  %77 = getelementptr inbounds nuw i8, ptr %.029.us46, i64 2
  %.sroa.04.0.copyload.us50 = load i16, ptr %77, align 2, !tbaa !9
  %78 = zext i16 %.sroa.04.0.copyload.us50 to i64
  %79 = getelementptr inbounds nuw %"class.Imath_3_2::half", ptr %8, i64 %78
  %.sroa.0.0.copyload.i24.us51 = load i16, ptr %79, align 2, !tbaa !9
  store i16 %.sroa.0.0.copyload.i24.us51, ptr %77, align 2, !tbaa !9
  %80 = getelementptr inbounds nuw i8, ptr %.029.us46, i64 4
  %.sroa.02.0.copyload.us52 = load i16, ptr %80, align 2, !tbaa !9
  %81 = zext i16 %.sroa.02.0.copyload.us52 to i64
  %82 = getelementptr inbounds nuw %"class.Imath_3_2::half", ptr %8, i64 %81
  %.sroa.0.0.copyload.i25.us53 = load i16, ptr %82, align 2, !tbaa !9
  store i16 %.sroa.0.0.copyload.i25.us53, ptr %80, align 2, !tbaa !9
  %83 = getelementptr inbounds %"struct.Imf_3_4::Rgba", ptr %.029.us46, i64 %12
  %84 = add nsw i32 %.01928.us47, -1
  %.not.us54 = icmp eq i32 %84, 0
  br i1 %.not.us54, label %._crit_edge, label %.lr.ph.split.split.split.split.us, !llvm.loop !36

.lr.ph.split.split.split.split:                   ; preds = %.lr.ph.split.split.split, %.lr.ph.split.split.split.split
  %.029 = phi ptr [ %96, %.lr.ph.split.split.split.split ], [ %1, %.lr.ph.split.split.split ]
  %.01928 = phi i32 [ %97, %.lr.ph.split.split.split.split ], [ %2, %.lr.ph.split.split.split ]
  %.sroa.06.0.copyload = load i16, ptr %.029, align 2, !tbaa !9
  %85 = zext i16 %.sroa.06.0.copyload to i64
  %86 = getelementptr inbounds nuw %"class.Imath_3_2::half", ptr %8, i64 %85
  %.sroa.0.0.copyload.i = load i16, ptr %86, align 2, !tbaa !9
  store i16 %.sroa.0.0.copyload.i, ptr %.029, align 2, !tbaa !9
  %87 = getelementptr inbounds nuw i8, ptr %.029, i64 2
  %.sroa.04.0.copyload = load i16, ptr %87, align 2, !tbaa !9
  %88 = zext i16 %.sroa.04.0.copyload to i64
  %89 = getelementptr inbounds nuw %"class.Imath_3_2::half", ptr %8, i64 %88
  %.sroa.0.0.copyload.i24 = load i16, ptr %89, align 2, !tbaa !9
  store i16 %.sroa.0.0.copyload.i24, ptr %87, align 2, !tbaa !9
  %90 = getelementptr inbounds nuw i8, ptr %.029, i64 4
  %.sroa.02.0.copyload = load i16, ptr %90, align 2, !tbaa !9
  %91 = zext i16 %.sroa.02.0.copyload to i64
  %92 = getelementptr inbounds nuw %"class.Imath_3_2::half", ptr %8, i64 %91
  %.sroa.0.0.copyload.i25 = load i16, ptr %92, align 2, !tbaa !9
  store i16 %.sroa.0.0.copyload.i25, ptr %90, align 2, !tbaa !9
  %93 = getelementptr inbounds nuw i8, ptr %.029, i64 6
  %.sroa.0.0.copyload = load i16, ptr %93, align 2, !tbaa !9
  %94 = zext i16 %.sroa.0.0.copyload to i64
  %95 = getelementptr inbounds nuw %"class.Imath_3_2::half", ptr %8, i64 %94
  %.sroa.0.0.copyload.i26 = load i16, ptr %95, align 2, !tbaa !9
  store i16 %.sroa.0.0.copyload.i26, ptr %93, align 2, !tbaa !9
  %96 = getelementptr inbounds %"struct.Imf_3_4::Rgba", ptr %.029, i64 %12
  %97 = add nsw i32 %.01928, -1
  %.not = icmp eq i32 %97, 0
  br i1 %.not, label %._crit_edge, label %.lr.ph.split.split.split.split, !llvm.loop !36

._crit_edge:                                      ; preds = %.lr.ph.split.split.split.split, %.lr.ph.split.split.split.split.us, %.lr.ph.split.split.split.us.split, %.lr.ph.split.split.split.us.split.us, %.lr.ph.split.split.us.split.split, %.lr.ph.split.split.us.split.split.us, %.lr.ph.split.split.us.split.us.split, %.lr.ph.split.split.us.split.us.split.us, %27, %4
  ret void
}